target datalayout = "e-m:e-p270:32:32-p271:32:32-p272:64:64-i64:64-i128:128-f80:128-n8:16:32:64-S128"
target triple = "x86_64-unknown-linux-gnu"

%struct.timeval = type { i64, i64 }

@trace_events_enabled_count = external global i32, align 4
@message_with_timestamp = external global i8, align 1
@qemu_loglevel = external global i32, align 4
@_TRACE_V9FS_SYMLINK_RETURN_DSTATE = external global i16, align 2
@.str.46 = private unnamed_addr constant [81 x i8] c"%d@%zu.%06zu:v9fs_symlink_return tag %u id %u qid={type %u version %u path %lu}\0A\00", align 1
@.str.47 = private unnamed_addr constant [68 x i8] c"v9fs_symlink_return tag %u id %u qid={type %u version %u path %lu}\0A\00", align 1

; Function Attrs: nounwind sspstrong uwtable
define internal zeroext i1 @qemu_loglevel_mask(i32 noundef %mask) #0 {
entry:
  %mask.addr = alloca i32, align 4
  store i32 %mask, ptr %mask.addr, align 4
  %0 = load i32, ptr @qemu_loglevel, align 4
  %1 = load i32, ptr %mask.addr, align 4
  %and = and i32 %0, %1
  %cmp = icmp ne i32 %and, 0
  ret i1 %cmp
}

; Function Attrs: nounwind sspstrong uwtable
define internal void @_nocheck__trace_v9fs_symlink_return(i16 noundef zeroext %tag, i8 noundef zeroext %id, i8 noundef zeroext %type, i32 noundef %version, i64 noundef %path) #0 {
entry:
  %tag.addr = alloca i16, align 2
  %id.addr = alloca i8, align 1
  %type.addr = alloca i8, align 1
  %version.addr = alloca i32, align 4
  %path.addr = alloca i64, align 8
  %_now = alloca %struct.timeval, align 8
  store i16 %tag, ptr %tag.addr, align 2
  store i8 %id, ptr %id.addr, align 1
  store i8 %type, ptr %type.addr, align 1
  store i32 %version, ptr %version.addr, align 4
  store i64 %path, ptr %path.addr, align 8
  %0 = load i32, ptr @trace_events_enabled_count, align 4
  %tobool = icmp ne i32 %0, 0
  %lnot = xor i1 %tobool, true
  %lnot1 = xor i1 %lnot, true
  %lnot.ext = zext i1 %lnot1 to i32
  %conv = sext i32 %lnot.ext to i64
  %tobool2 = icmp ne i64 %conv, 0
  br i1 %tobool2, label %land.lhs.true, label %if.end17

land.lhs.true:                                    ; preds = %entry
  %1 = load i16, ptr @_TRACE_V9FS_SYMLINK_RETURN_DSTATE, align 2
  %conv3 = zext i16 %1 to i32
  %tobool4 = icmp ne i32 %conv3, 0
  br i1 %tobool4, label %land.lhs.true5, label %if.end17

land.lhs.true5:                                   ; preds = %land.lhs.true
  %call = call zeroext i1 @qemu_loglevel_mask(i32 noundef 32768)
  br i1 %call, label %if.then, label %if.end17

if.then:                                          ; preds = %land.lhs.true5
  %2 = load i8, ptr @message_with_timestamp, align 1
  %tobool7 = trunc i8 %2 to i1
  br i1 %tobool7, label %if.then8, label %if.else

if.then8:                                         ; preds = %if.then
  %call9 = call i32 @gettimeofday(ptr noundef %_now, ptr noundef null) #19
  %call10 = call i32 @qemu_get_thread_id()
  %tv_sec = getelementptr inbounds %struct.timeval, ptr %_now, i32 0, i32 0
  %3 = load i64, ptr %tv_sec, align 8
  %tv_usec = getelementptr inbounds %struct.timeval, ptr %_now, i32 0, i32 1
  %4 = load i64, ptr %tv_usec, align 8
  %5 = load i16, ptr %tag.addr, align 2
  %conv11 = zext i16 %5 to i32
  %6 = load i8, ptr %id.addr, align 1
  %conv12 = zext i8 %6 to i32
  %7 = load i8, ptr %type.addr, align 1
  %conv13 = zext i8 %7 to i32
  %8 = load i32, ptr %version.addr, align 4
  %9 = load i64, ptr %path.addr, align 8
  call void (ptr, ...) @qemu_log(ptr noundef @.str.46, i32 noundef %call10, i64 noundef %3, i64 noundef %4, i32 noundef %conv11, i32 noundef %conv12, i32 noundef %conv13, i32 noundef %8, i64 noundef %9)
  br label %if.end

if.else:                                          ; preds = %if.then
  %10 = load i16, ptr %tag.addr, align 2
  %conv14 = zext i16 %10 to i32
  %11 = load i8, ptr %id.addr, align 1
  %conv15 = zext i8 %11 to i32
  %12 = load i8, ptr %type.addr, align 1
  %conv16 = zext i8 %12 to i32
  %13 = load i32, ptr %version.addr, align 4
  %14 = load i64, ptr %path.addr, align 8
  call void (ptr, ...) @qemu_log(ptr noundef @.str.47, i32 noundef %conv14, i32 noundef %conv15, i32 noundef %conv16, i32 noundef %13, i64 noundef %14)
  br label %if.end

if.end:                                           ; preds = %if.else, %if.then8
  br label %if.end17

if.end17:                                         ; preds = %if.end, %land.lhs.true5, %land.lhs.true, %entry
  ret void
}

; Function Attrs: nounwind sspstrong uwtable
define internal void @trace_v9fs_symlink_return(i16 noundef zeroext %tag, i8 noundef zeroext %id, i8 noundef zeroext %type, i32 noundef %version, i64 noundef %path) #0 {
entry:
  %tag.addr = alloca i16, align 2
  %id.addr = alloca i8, align 1
  %type.addr = alloca i8, align 1
  %version.addr = alloca i32, align 4
  %path.addr = alloca i64, align 8
  store i16 %tag, ptr %tag.addr, align 2
  store i8 %id, ptr %id.addr, align 1
  store i8 %type, ptr %type.addr, align 1
  store i32 %version, ptr %version.addr, align 4
  store i64 %path, ptr %path.addr, align 8
  %0 = load i16, ptr %tag.addr, align 2
  %1 = load i8, ptr %id.addr, align 1
  %2 = load i8, ptr %type.addr, align 1
  %3 = load i32, ptr %version.addr, align 4
  %4 = load i64, ptr %path.addr, align 8
  call void @_nocheck__trace_v9fs_symlink_return(i16 noundef zeroext %0, i8 noundef zeroext %1, i8 noundef zeroext %2, i32 noundef %3, i64 noundef %4)
  ret void
}